; Function Attrs: mustprogress nounwind uwtable
define internal void @"_ZN4absl12lts_2024072222internal_any_invocable23RemoteManagerNontrivialIZL27cq_finish_shutdown_callbackP21grpc_completion_queueE3$_0EEvNS1_14FunctionToCallEPNS1_15TypeErasedStateES8_"(i1 noundef zeroext %0, ptr noundef readonly captures(none) %1, ptr noundef writeonly captures(none) %2) #18 personality ptr @__gxx_personality_v0 {
  %4 = load ptr, ptr %1, align 16, !tbaa !88
  br i1 %0, label %6, label %5

5:                                                ; preds = %3
  store ptr %4, ptr %2, align 16, !tbaa !88
  br label %31

6:                                                ; preds = %3
  %7 = icmp eq ptr %4, null
  br i1 %7, label %31, label %8

8:                                                ; preds = %6
  %9 = getelementptr i8, ptr %4, i64 8
  %.val = load ptr, ptr %9, align 8, !tbaa !178
  %.not.i.i.i = icmp eq ptr %.val, null
  br i1 %.not.i.i.i, label %"_ZZL27cq_finish_shutdown_callbackP21grpc_completion_queueEN3$_0D2Ev.exit", label %10

10:                                               ; preds = %8
  %11 = getelementptr inbounds nuw i8, ptr %.val, i64 8
  %12 = load atomic i64, ptr %11 acquire, align 8
  %13 = icmp eq i64 %12, 4294967297
  %14 = trunc i64 %12 to i32
  br i1 %13, label %15, label %23

15:                                               ; preds = %10
  store i32 0, ptr %11, align 8, !tbaa !179
  %16 = getelementptr inbounds nuw i8, ptr %.val, i64 12
  store i32 0, ptr %16, align 4, !tbaa !181
  %17 = load ptr, ptr %.val, align 8, !tbaa !15
  %18 = getelementptr inbounds nuw i8, ptr %17, i64 16
  %19 = load ptr, ptr %18, align 8
  tail call void %19(ptr noundef nonnull align 8 dereferenceable(16) %.val) #36
  %20 = load ptr, ptr %.val, align 8, !tbaa !15
  %21 = getelementptr inbounds nuw i8, ptr %20, i64 24
  %22 = load ptr, ptr %21, align 8
  tail call void %22(ptr noundef nonnull align 8 dereferenceable(16) %.val) #36
  br label %"_ZZL27cq_finish_shutdown_callbackP21grpc_completion_queueEN3$_0D2Ev.exit"

23:                                               ; preds = %10
  %24 = load i8, ptr @__libc_single_threaded, align 1, !tbaa !88
  %.not.i.i.i.i = icmp eq i8 %24, 0
  br i1 %.not.i.i.i.i, label %27, label %25

25:                                               ; preds = %23
  %26 = add nsw i32 %14, -1
  store i32 %26, ptr %11, align 4, !tbaa !35
  br label %_ZN9__gnu_cxx27__exchange_and_add_dispatchEPii.exit.i.i.i.i

27:                                               ; preds = %23
  %28 = atomicrmw volatile add ptr %11, i32 -1 acq_rel, align 4
  br label %_ZN9__gnu_cxx27__exchange_and_add_dispatchEPii.exit.i.i.i.i

_ZN9__gnu_cxx27__exchange_and_add_dispatchEPii.exit.i.i.i.i: ; preds = %27, %25
  %.0.i.i.i.i.i = phi i32 [ %14, %25 ], [ %28, %27 ]
  %29 = icmp eq i32 %.0.i.i.i.i.i, 1
  br i1 %29, label %30, label %"_ZZL27cq_finish_shutdown_callbackP21grpc_completion_queueEN3$_0D2Ev.exit", !prof !33

30:                                               ; preds = %_ZN9__gnu_cxx27__exchange_and_add_dispatchEPii.exit.i.i.i.i
  tail call void @_ZNSt16_Sp_counted_baseILN9__gnu_cxx12_Lock_policyE2EE24_M_release_last_use_coldEv(ptr noundef nonnull align 8 dereferenceable(16) %.val) #36
  br label %"_ZZL27cq_finish_shutdown_callbackP21grpc_completion_queueEN3$_0D2Ev.exit"

"_ZZL27cq_finish_shutdown_callbackP21grpc_completion_queueEN3$_0D2Ev.exit": ; preds = %8, %15, %_ZN9__gnu_cxx27__exchange_and_add_dispatchEPii.exit.i.i.i.i, %30
  tail call void @_ZdlPvm(ptr noundef nonnull %4, i64 noundef 24) #42
  br label %31

31:                                               ; preds = %6, %"_ZZL27cq_finish_shutdown_callbackP21grpc_completion_queueEN3$_0D2Ev.exit", %5
  ret void
}